target datalayout = "e-m:e-p270:32:32-p271:32:32-p272:64:64-i64:64-i128:128-f80:128-n8:16:32:64-S128"
target triple = "x86_64-unknown-linux-gnu"

%struct.NetClientState = type { ptr, i32, %union.anon, ptr, ptr, ptr, ptr, [256 x i8], i8, ptr, i32, i8, i32, i32, i8, i8, i8, %union.anon.0 }
%union.anon = type { %struct.QTailQLink }
%struct.QTailQLink = type { ptr, ptr }
%union.anon.0 = type { %struct.QTailQLink }
%struct.NetVhostUserState = type { %struct.NetClientState, %struct.CharBackend, ptr, ptr, i32, i64, i8 }
%struct.CharBackend = type { ptr, ptr, ptr, ptr, ptr, ptr, i32, i32 }

@.str.1 = private unnamed_addr constant [25 x i8] c"../qemu/net/vhost-user.c\00", align 1
@.str.15 = private unnamed_addr constant [23 x i8] c"queues < MAX_QUEUE_NUM\00", align 1
@__PRETTY_FUNCTION__.chr_closed_bh = private unnamed_addr constant [27 x i8] c"void chr_closed_bh(void *)\00", align 1

; Function Attrs: nounwind sspstrong uwtable
define dso_local void @vhost_user_save_acked_features(ptr noundef %nc) #0 {
entry:
  %nc.addr = alloca ptr, align 8
  %s = alloca ptr, align 8
  %tmp = alloca ptr, align 8
  %__mptr = alloca ptr, align 8
  %tmp1 = alloca ptr, align 8
  %features = alloca i64, align 8
  store ptr %nc, ptr %nc.addr, align 8
  %0 = load ptr, ptr %nc.addr, align 8
  store ptr %0, ptr %__mptr, align 8
  %1 = load ptr, ptr %__mptr, align 8
  %add.ptr = getelementptr i8, ptr %1, i64 0
  store ptr %add.ptr, ptr %tmp1, align 8
  %2 = load ptr, ptr %tmp1, align 8
  store ptr %2, ptr %tmp, align 8
  %3 = load ptr, ptr %tmp, align 8
  store ptr %3, ptr %s, align 8
  %4 = load ptr, ptr %s, align 8
  %vhost_net = getelementptr inbounds %struct.NetVhostUserState, ptr %4, i32 0, i32 3
  %5 = load ptr, ptr %vhost_net, align 8
  %tobool = icmp ne ptr %5, null
  br i1 %tobool, label %if.then, label %if.end5

if.then:                                          ; preds = %entry
  %6 = load ptr, ptr %s, align 8
  %vhost_net2 = getelementptr inbounds %struct.NetVhostUserState, ptr %6, i32 0, i32 3
  %7 = load ptr, ptr %vhost_net2, align 8
  %call = call i64 @vhost_net_get_acked_features(ptr noundef %7)
  store i64 %call, ptr %features, align 8
  %8 = load i64, ptr %features, align 8
  %tobool3 = icmp ne i64 %8, 0
  br i1 %tobool3, label %if.then4, label %if.end

if.then4:                                         ; preds = %if.then
  %9 = load i64, ptr %features, align 8
  %10 = load ptr, ptr %s, align 8
  %acked_features = getelementptr inbounds %struct.NetVhostUserState, ptr %10, i32 0, i32 5
  store i64 %9, ptr %acked_features, align 8
  br label %if.end

if.end:                                           ; preds = %if.then4, %if.then
  br label %if.end5

if.end5:                                          ; preds = %if.end, %entry
  ret void
}

; Function Attrs: nounwind sspstrong uwtable
define internal void @chr_closed_bh(ptr noundef %opaque) #0 {
entry:
  %opaque.addr = alloca ptr, align 8
  %name = alloca ptr, align 8
  %ncs = alloca [1024 x ptr], align 16
  %s = alloca ptr, align 8
  %err = alloca ptr, align 8
  %queues = alloca i32, align 4
  %i = alloca i32, align 4
  %tmp = alloca ptr, align 8
  %__mptr = alloca ptr, align 8
  %tmp1 = alloca ptr, align 8
  store ptr %opaque, ptr %opaque.addr, align 8
  %0 = load ptr, ptr %opaque.addr, align 8
  store ptr %0, ptr %name, align 8
  store ptr null, ptr %err, align 8
  %1 = load ptr, ptr %name, align 8
  %arraydecay = getelementptr inbounds [1024 x ptr], ptr %ncs, i64 0, i64 0
  %call = call i32 @qemu_find_net_clients_except(ptr noundef %1, ptr noundef %arraydecay, i32 noundef 1, i32 noundef 1024)
  store i32 %call, ptr %queues, align 4
  %2 = load i32, ptr %queues, align 4
  %cmp = icmp slt i32 %2, 1024
  br i1 %cmp, label %if.then, label %if.else

if.then:                                          ; preds = %entry
  br label %if.end

if.else:                                          ; preds = %entry
  call void @__assert_fail(ptr noundef @.str.15, ptr noundef @.str.1, i32 noundef 258, ptr noundef @__PRETTY_FUNCTION__.chr_closed_bh) #6
  unreachable

if.end:                                           ; preds = %if.then
  %arrayidx = getelementptr [1024 x ptr], ptr %ncs, i64 0, i64 0
  %3 = load ptr, ptr %arrayidx, align 16
  store ptr %3, ptr %__mptr, align 8
  %4 = load ptr, ptr %__mptr, align 8
  %add.ptr = getelementptr i8, ptr %4, i64 0
  store ptr %add.ptr, ptr %tmp1, align 8
  %5 = load ptr, ptr %tmp1, align 8
  store ptr %5, ptr %tmp, align 8
  %6 = load ptr, ptr %tmp, align 8
  store ptr %6, ptr %s, align 8
  %7 = load i32, ptr %queues, align 4
  %sub = sub i32 %7, 1
  store i32 %sub, ptr %i, align 4
  br label %for.cond

for.cond:                                         ; preds = %for.inc, %if.end
  %8 = load i32, ptr %i, align 4
  %cmp2 = icmp sge i32 %8, 0
  br i1 %cmp2, label %for.body, label %for.end

for.body:                                         ; preds = %for.cond
  %9 = load i32, ptr %i, align 4
  %idxprom = sext i32 %9 to i64
  %arrayidx3 = getelementptr [1024 x ptr], ptr %ncs, i64 0, i64 %idxprom
  %10 = load ptr, ptr %arrayidx3, align 8
  call void @vhost_user_save_acked_features(ptr noundef %10)
  br label %for.inc

for.inc:                                          ; preds = %for.body
  %11 = load i32, ptr %i, align 4
  %dec = add i32 %11, -1
  store i32 %dec, ptr %i, align 4
  br label %for.cond, !llvm.loop !9

for.end:                                          ; preds = %for.cond
  %12 = load ptr, ptr %name, align 8
  call void @qmp_set_link(ptr noundef %12, i1 noundef zeroext false, ptr noundef %err)
  %13 = load ptr, ptr %s, align 8
  %chr = getelementptr inbounds %struct.NetVhostUserState, ptr %13, i32 0, i32 1
  %14 = load ptr, ptr %opaque.addr, align 8
  call void @qemu_chr_fe_set_handlers(ptr noundef %chr, ptr noundef null, ptr noundef null, ptr noundef @net_vhost_user_event, ptr noundef null, ptr noundef %14, ptr noundef null, i1 noundef zeroext true)
  %15 = load ptr, ptr %err, align 8
  %tobool = icmp ne ptr %15, null
  br i1 %tobool, label %if.then4, label %if.end5

if.then4:                                         ; preds = %for.end
  %16 = load ptr, ptr %err, align 8
  call void @error_report_err(ptr noundef %16)
  br label %if.end5

if.end5:                                          ; preds = %if.then4, %for.end
  ret void
}