; Function Attrs: nounwind sspstrong uwtable
define internal void @chr_closed_bh(ptr noundef %opaque) #0 {
entry:
  %ncs = alloca [1024 x ptr], align 16
  %err = alloca ptr, align 8
  store ptr null, ptr %err, align 8
  %call = call i32 @qemu_find_net_clients_except(ptr noundef %opaque, ptr noundef nonnull %ncs, i32 noundef 1, i32 noundef 1024) #10
  %cmp = icmp slt i32 %call, 1024
  br i1 %cmp, label %if.end, label %if.else

if.else:                                          ; preds = %entry
  call void @__assert_fail(ptr noundef nonnull @.str.15, ptr noundef nonnull @.str.1, i32 noundef 258, ptr noundef nonnull @__PRETTY_FUNCTION__.chr_closed_bh) #9
  unreachable

if.end:                                           ; preds = %entry
  %0 = load ptr, ptr %ncs, align 16
  %i.06 = add i32 %call, -1
  %cmp27 = icmp sgt i32 %i.06, -1
  br i1 %cmp27, label %for.body.preheader, label %for.end

for.body.preheader:                               ; preds = %if.end
  %1 = zext nneg i32 %i.06 to i64
  br label %for.body

for.body:                                         ; preds = %for.body.preheader, %vhost_user_save_acked_features.exit
  %indvars.iv = phi i64 [ %1, %for.body.preheader ], [ %indvars.iv.next, %vhost_user_save_acked_features.exit ]
  %arrayidx3 = getelementptr [1024 x ptr], ptr %ncs, i64 0, i64 %indvars.iv
  %2 = load ptr, ptr %arrayidx3, align 8
  %vhost_net.i = getelementptr inbounds nuw i8, ptr %2, i64 440
  %3 = load ptr, ptr %vhost_net.i, align 8
  %tobool.not.i = icmp eq ptr %3, null
  br i1 %tobool.not.i, label %vhost_user_save_acked_features.exit, label %if.then.i

if.then.i:                                        ; preds = %for.body
  %call.i = call i64 @vhost_net_get_acked_features(ptr noundef nonnull %3) #10
  %tobool3.not.i = icmp eq i64 %call.i, 0
  br i1 %tobool3.not.i, label %vhost_user_save_acked_features.exit, label %if.then4.i

if.then4.i:                                       ; preds = %if.then.i
  %acked_features.i = getelementptr inbounds nuw i8, ptr %2, i64 456
  store i64 %call.i, ptr %acked_features.i, align 8
  br label %vhost_user_save_acked_features.exit

vhost_user_save_acked_features.exit:              ; preds = %for.body, %if.then.i, %if.then4.i
  %indvars.iv.next = add nsw i64 %indvars.iv, -1
  %cmp2 = icmp sgt i64 %indvars.iv, 0
  br i1 %cmp2, label %for.body, label %for.end, !llvm.loop !10

for.end:                                          ; preds = %vhost_user_save_acked_features.exit, %if.end
  call void @qmp_set_link(ptr noundef %opaque, i1 noundef zeroext false, ptr noundef nonnull %err) #10
  %chr = getelementptr inbounds nuw i8, ptr %0, i64 376
  call void @qemu_chr_fe_set_handlers(ptr noundef nonnull %chr, ptr noundef null, ptr noundef null, ptr noundef nonnull @net_vhost_user_event, ptr noundef null, ptr noundef %opaque, ptr noundef null, i1 noundef zeroext true) #10
  %4 = load ptr, ptr %err, align 8
  %tobool.not = icmp eq ptr %4, null
  br i1 %tobool.not, label %if.end5, label %if.then4

if.then4:                                         ; preds = %for.end
  call void @error_report_err(ptr noundef nonnull %4) #10
  br label %if.end5

if.end5:                                          ; preds = %if.then4, %for.end
  ret void
}